; Function Attrs: nounwind uwtable
define internal fastcc range(i32 0, 2) i32 @flushDisplay() unnamed_addr #0 {
  %1 = alloca %struct.pollfd, align 4
  %2 = load ptr, ptr getelementptr inbounds nuw (i8, ptr @_glfw, i64 137384), align 8, !tbaa !295
  %3 = load ptr, ptr getelementptr inbounds nuw (i8, ptr @_glfw, i64 133888), align 8, !tbaa !232
  %4 = tail call i32 %2(ptr noundef %3) #20
  %5 = icmp eq i32 %4, -1
  br i1 %5, label %.lr.ph8, label %.loopexit

.lr.ph8:                                          ; preds = %0
  %6 = tail call ptr @__errno_location() #21
  %7 = getelementptr inbounds nuw i8, ptr %1, i64 4
  %8 = getelementptr inbounds nuw i8, ptr %1, i64 6
  br label %9

9:                                                ; preds = %.lr.ph8, %._crit_edge
  %10 = load i32, ptr %6, align 4, !tbaa !147
  %.not = icmp eq i32 %10, 11
  br i1 %.not, label %11, label %.loopexit

11:                                               ; preds = %9
  call void @llvm.lifetime.start.p0(i64 8, ptr nonnull %1) #20
  %12 = load ptr, ptr getelementptr inbounds nuw (i8, ptr @_glfw, i64 137432), align 8, !tbaa !266
  %13 = load ptr, ptr getelementptr inbounds nuw (i8, ptr @_glfw, i64 133888), align 8, !tbaa !232
  %14 = call i32 %12(ptr noundef %13) #20
  store i32 %14, ptr %1, align 4, !tbaa !267
  store i16 4, ptr %7, align 4, !tbaa !270
  store i16 0, ptr %8, align 2, !tbaa !271
  %15 = call i32 @poll(ptr noundef nonnull %1, i64 noundef 1, i32 noundef -1) #20
  %16 = icmp eq i32 %15, -1
  br i1 %16, label %.lr.ph, label %._crit_edge

.lr.ph:                                           ; preds = %11, %18
  %17 = load i32, ptr %6, align 4, !tbaa !147
  switch i32 %17, label %.thread [
    i32 4, label %18
    i32 11, label %18
  ]

.thread:                                          ; preds = %.lr.ph
  call void @llvm.lifetime.end.p0(i64 8, ptr nonnull %1) #20
  br label %.loopexit

18:                                               ; preds = %.lr.ph, %.lr.ph
  %19 = call i32 @poll(ptr noundef nonnull %1, i64 noundef 1, i32 noundef -1) #20
  %20 = icmp eq i32 %19, -1
  br i1 %20, label %.lr.ph, label %._crit_edge

._crit_edge:                                      ; preds = %18, %11
  call void @llvm.lifetime.end.p0(i64 8, ptr nonnull %1) #20
  %21 = load ptr, ptr getelementptr inbounds nuw (i8, ptr @_glfw, i64 137384), align 8, !tbaa !295
  %22 = load ptr, ptr getelementptr inbounds nuw (i8, ptr @_glfw, i64 133888), align 8, !tbaa !232
  %23 = call i32 %21(ptr noundef %22) #20
  %24 = icmp eq i32 %23, -1
  br i1 %24, label %9, label %.loopexit

.loopexit:                                        ; preds = %9, %._crit_edge, %0, %.thread
  %.1 = phi i32 [ 0, %.thread ], [ 1, %0 ], [ 0, %9 ], [ 1, %._crit_edge ]
  ret i32 %.1
}